
obj/slliw:     file format elf64-littleriscv


Disassembly of section .text.init:

0000000080000000 <_start>:
    80000000:	0480006f          	j	80000048 <reset_vector>

0000000080000004 <trap_vector>:
    80000004:	34202f73          	csrr	t5,mcause
    80000008:	00800f93          	li	t6,8
    8000000c:	03ff0863          	beq	t5,t6,8000003c <write_tohost>
    80000010:	00900f93          	li	t6,9
    80000014:	03ff0463          	beq	t5,t6,8000003c <write_tohost>
    80000018:	00b00f93          	li	t6,11
    8000001c:	03ff0063          	beq	t5,t6,8000003c <write_tohost>
    80000020:	00000f13          	li	t5,0
    80000024:	000f0463          	beqz	t5,8000002c <trap_vector+0x28>
    80000028:	000f0067          	jr	t5
    8000002c:	34202f73          	csrr	t5,mcause
    80000030:	000f5463          	bgez	t5,80000038 <handle_exception>
    80000034:	0040006f          	j	80000038 <handle_exception>

0000000080000038 <handle_exception>:
    80000038:	5391e193          	ori	gp,gp,1337

000000008000003c <write_tohost>:
    8000003c:	00001f17          	auipc	t5,0x1
    80000040:	fc3f2223          	sw	gp,-60(t5) # 80001000 <tohost>
    80000044:	ff9ff06f          	j	8000003c <write_tohost>

0000000080000048 <reset_vector>:
    80000048:	00000093          	li	ra,0
    8000004c:	00000113          	li	sp,0
    80000050:	00000193          	li	gp,0
    80000054:	00000213          	li	tp,0
    80000058:	00000293          	li	t0,0
    8000005c:	00000313          	li	t1,0
    80000060:	00000393          	li	t2,0
    80000064:	00000413          	li	s0,0
    80000068:	00000493          	li	s1,0
    8000006c:	00000513          	li	a0,0
    80000070:	00000593          	li	a1,0
    80000074:	00000613          	li	a2,0
    80000078:	00000693          	li	a3,0
    8000007c:	00000713          	li	a4,0
    80000080:	00000793          	li	a5,0
    80000084:	00000813          	li	a6,0
    80000088:	00000893          	li	a7,0
    8000008c:	00000913          	li	s2,0
    80000090:	00000993          	li	s3,0
    80000094:	00000a13          	li	s4,0
    80000098:	00000a93          	li	s5,0
    8000009c:	00000b13          	li	s6,0
    800000a0:	00000b93          	li	s7,0
    800000a4:	00000c13          	li	s8,0
    800000a8:	00000c93          	li	s9,0
    800000ac:	00000d13          	li	s10,0
    800000b0:	00000d93          	li	s11,0
    800000b4:	00000e13          	li	t3,0
    800000b8:	00000e93          	li	t4,0
    800000bc:	00000f13          	li	t5,0
    800000c0:	00000f93          	li	t6,0
    800000c4:	f1402573          	csrr	a0,mhartid
    800000c8:	00051063          	bnez	a0,800000c8 <reset_vector+0x80>
    800000cc:	00000297          	auipc	t0,0x0
    800000d0:	00c28293          	addi	t0,t0,12 # 800000d8 <reset_vector+0x90>
    800000d4:	30529073          	csrw	mtvec,t0
    800000d8:	00000297          	auipc	t0,0x0
    800000dc:	02428293          	addi	t0,t0,36 # 800000fc <reset_vector+0xb4>
    800000e0:	30529073          	csrw	mtvec,t0
    800000e4:	0010029b          	addiw	t0,zero,1
    800000e8:	03529293          	slli	t0,t0,0x35
    800000ec:	fff28293          	addi	t0,t0,-1
    800000f0:	3b029073          	csrw	pmpaddr0,t0
    800000f4:	01f00293          	li	t0,31
    800000f8:	3a029073          	csrw	pmpcfg0,t0
    800000fc:	30405073          	csrwi	mie,0
    80000100:	00000297          	auipc	t0,0x0
    80000104:	00c28293          	addi	t0,t0,12 # 8000010c <reset_vector+0xc4>
    80000108:	30529073          	csrw	mtvec,t0
    8000010c:	00000193          	li	gp,0
    80000110:	00000297          	auipc	t0,0x0
    80000114:	ef428293          	addi	t0,t0,-268 # 80000004 <trap_vector>
    80000118:	30529073          	csrw	mtvec,t0
    8000011c:	00100513          	li	a0,1
    80000120:	01f51513          	slli	a0,a0,0x1f
    80000124:	00055c63          	bgez	a0,8000013c <reset_vector+0xf4>
    80000128:	0ff0000f          	fence
    8000012c:	00100193          	li	gp,1
    80000130:	05d00893          	li	a7,93
    80000134:	00000513          	li	a0,0
    80000138:	00000073          	ecall
    8000013c:	00000293          	li	t0,0
    80000140:	00028863          	beqz	t0,80000150 <reset_vector+0x108>
    80000144:	10529073          	csrw	stvec,t0
    80000148:	0000b2b7          	lui	t0,0xb
    8000014c:	1092829b          	addiw	t0,t0,265
    80000150:	30005073          	csrwi	mstatus,0
    80000154:	00000297          	auipc	t0,0x0
    80000158:	01428293          	addi	t0,t0,20 # 80000168 <test_2>
    8000015c:	34129073          	csrw	mepc,t0
    80000160:	f1402573          	csrr	a0,mhartid
    80000164:	30200073          	mret

0000000080000168 <test_2>:
    80000168:	00200193          	li	gp,2
    8000016c:	00100093          	li	ra,1
    80000170:	0000971b          	slliw	a4,ra,0x0
    80000174:	00100393          	li	t2,1
    80000178:	30771263          	bne	a4,t2,8000047c <fail>

000000008000017c <test_3>:
    8000017c:	00300193          	li	gp,3
    80000180:	00100093          	li	ra,1
    80000184:	0010971b          	slliw	a4,ra,0x1
    80000188:	00200393          	li	t2,2
    8000018c:	2e771863          	bne	a4,t2,8000047c <fail>

0000000080000190 <test_4>:
    80000190:	00400193          	li	gp,4
    80000194:	00100093          	li	ra,1
    80000198:	0070971b          	slliw	a4,ra,0x7
    8000019c:	08000393          	li	t2,128
    800001a0:	2c771e63          	bne	a4,t2,8000047c <fail>

00000000800001a4 <test_5>:
    800001a4:	00500193          	li	gp,5
    800001a8:	00100093          	li	ra,1
    800001ac:	00e0971b          	slliw	a4,ra,0xe
    800001b0:	000043b7          	lui	t2,0x4
    800001b4:	2c771463          	bne	a4,t2,8000047c <fail>

00000000800001b8 <test_6>:
    800001b8:	00600193          	li	gp,6
    800001bc:	00100093          	li	ra,1
    800001c0:	01f0971b          	slliw	a4,ra,0x1f
    800001c4:	800003b7          	lui	t2,0x80000
    800001c8:	2a771a63          	bne	a4,t2,8000047c <fail>

00000000800001cc <test_7>:
    800001cc:	00700193          	li	gp,7
    800001d0:	fff00093          	li	ra,-1
    800001d4:	0000971b          	slliw	a4,ra,0x0
    800001d8:	fff00393          	li	t2,-1
    800001dc:	2a771063          	bne	a4,t2,8000047c <fail>

00000000800001e0 <test_8>:
    800001e0:	00800193          	li	gp,8
    800001e4:	fff00093          	li	ra,-1
    800001e8:	0010971b          	slliw	a4,ra,0x1
    800001ec:	ffe00393          	li	t2,-2
    800001f0:	28771663          	bne	a4,t2,8000047c <fail>

00000000800001f4 <test_9>:
    800001f4:	00900193          	li	gp,9
    800001f8:	fff00093          	li	ra,-1
    800001fc:	0070971b          	slliw	a4,ra,0x7
    80000200:	f8000393          	li	t2,-128
    80000204:	26771c63          	bne	a4,t2,8000047c <fail>

0000000080000208 <test_10>:
    80000208:	00a00193          	li	gp,10
    8000020c:	fff00093          	li	ra,-1
    80000210:	00e0971b          	slliw	a4,ra,0xe
    80000214:	ffffc3b7          	lui	t2,0xffffc
    80000218:	26771263          	bne	a4,t2,8000047c <fail>

000000008000021c <test_11>:
    8000021c:	00b00193          	li	gp,11
    80000220:	fff00093          	li	ra,-1
    80000224:	01f0971b          	slliw	a4,ra,0x1f
    80000228:	800003b7          	lui	t2,0x80000
    8000022c:	24771863          	bne	a4,t2,8000047c <fail>

0000000080000230 <test_12>:
    80000230:	00c00193          	li	gp,12
    80000234:	212120b7          	lui	ra,0x21212
    80000238:	1210809b          	addiw	ra,ra,289
    8000023c:	0000971b          	slliw	a4,ra,0x0
    80000240:	212123b7          	lui	t2,0x21212
    80000244:	1213839b          	addiw	t2,t2,289
    80000248:	22771a63          	bne	a4,t2,8000047c <fail>

000000008000024c <test_13>:
    8000024c:	00d00193          	li	gp,13
    80000250:	212120b7          	lui	ra,0x21212
    80000254:	1210809b          	addiw	ra,ra,289
    80000258:	0010971b          	slliw	a4,ra,0x1
    8000025c:	424243b7          	lui	t2,0x42424
    80000260:	2423839b          	addiw	t2,t2,578
    80000264:	20771c63          	bne	a4,t2,8000047c <fail>

0000000080000268 <test_14>:
    80000268:	00e00193          	li	gp,14
    8000026c:	212120b7          	lui	ra,0x21212
    80000270:	1210809b          	addiw	ra,ra,289
    80000274:	0070971b          	slliw	a4,ra,0x7
    80000278:	909093b7          	lui	t2,0x90909
    8000027c:	0803839b          	addiw	t2,t2,128
    80000280:	1e771e63          	bne	a4,t2,8000047c <fail>

0000000080000284 <test_15>:
    80000284:	00f00193          	li	gp,15
    80000288:	212120b7          	lui	ra,0x21212
    8000028c:	1210809b          	addiw	ra,ra,289
    80000290:	00e0971b          	slliw	a4,ra,0xe
    80000294:	484843b7          	lui	t2,0x48484
    80000298:	1e771263          	bne	a4,t2,8000047c <fail>

000000008000029c <test_16>:
    8000029c:	01000193          	li	gp,16
    800002a0:	212120b7          	lui	ra,0x21212
    800002a4:	1210809b          	addiw	ra,ra,289
    800002a8:	01f0971b          	slliw	a4,ra,0x1f
    800002ac:	800003b7          	lui	t2,0x80000
    800002b0:	1c771663          	bne	a4,t2,8000047c <fail>

00000000800002b4 <test_44>:
    800002b4:	02c00193          	li	gp,44
    800002b8:	fff120b7          	lui	ra,0xfff12
    800002bc:	3450809b          	addiw	ra,ra,837
    800002c0:	00c09093          	slli	ra,ra,0xc
    800002c4:	67808093          	addi	ra,ra,1656 # fffffffffff12678 <_end+0xffffffff7ff10678>
    800002c8:	0000971b          	slliw	a4,ra,0x0
    800002cc:	123453b7          	lui	t2,0x12345
    800002d0:	6783839b          	addiw	t2,t2,1656
    800002d4:	1a771463          	bne	a4,t2,8000047c <fail>

00000000800002d8 <test_45>:
    800002d8:	02d00193          	li	gp,45
    800002dc:	fff120b7          	lui	ra,0xfff12
    800002e0:	3450809b          	addiw	ra,ra,837
    800002e4:	00c09093          	slli	ra,ra,0xc
    800002e8:	67808093          	addi	ra,ra,1656 # fffffffffff12678 <_end+0xffffffff7ff10678>
    800002ec:	0040971b          	slliw	a4,ra,0x4
    800002f0:	234563b7          	lui	t2,0x23456
    800002f4:	7803839b          	addiw	t2,t2,1920
    800002f8:	18771263          	bne	a4,t2,8000047c <fail>

00000000800002fc <test_46>:
    800002fc:	02e00193          	li	gp,46
    80000300:	000920b7          	lui	ra,0x92
    80000304:	3450809b          	addiw	ra,ra,837
    80000308:	00c09093          	slli	ra,ra,0xc
    8000030c:	67808093          	addi	ra,ra,1656 # 92678 <_start-0x7ff6d988>
    80000310:	0000971b          	slliw	a4,ra,0x0
    80000314:	923453b7          	lui	t2,0x92345
    80000318:	6783839b          	addiw	t2,t2,1656
    8000031c:	16771063          	bne	a4,t2,8000047c <fail>

0000000080000320 <test_47>:
    80000320:	02f00193          	li	gp,47
    80000324:	000990b7          	lui	ra,0x99
    80000328:	3450809b          	addiw	ra,ra,837
    8000032c:	00c09093          	slli	ra,ra,0xc
    80000330:	67808093          	addi	ra,ra,1656 # 99678 <_start-0x7ff66988>
    80000334:	0040971b          	slliw	a4,ra,0x4
    80000338:	934563b7          	lui	t2,0x93456
    8000033c:	7803839b          	addiw	t2,t2,1920
    80000340:	12771e63          	bne	a4,t2,8000047c <fail>

0000000080000344 <test_17>:
    80000344:	01100193          	li	gp,17
    80000348:	00100093          	li	ra,1
    8000034c:	0070909b          	slliw	ra,ra,0x7
    80000350:	08000393          	li	t2,128
    80000354:	12709463          	bne	ra,t2,8000047c <fail>

0000000080000358 <test_18>:
    80000358:	01200193          	li	gp,18
    8000035c:	00000213          	li	tp,0
    80000360:	00100093          	li	ra,1
    80000364:	0070971b          	slliw	a4,ra,0x7
    80000368:	00070313          	mv	t1,a4
    8000036c:	00120213          	addi	tp,tp,1 # 1 <_start-0x7fffffff>
    80000370:	00200293          	li	t0,2
    80000374:	fe5216e3          	bne	tp,t0,80000360 <test_18+0x8>
    80000378:	08000393          	li	t2,128
    8000037c:	10731063          	bne	t1,t2,8000047c <fail>

0000000080000380 <test_19>:
    80000380:	01300193          	li	gp,19
    80000384:	00000213          	li	tp,0
    80000388:	00100093          	li	ra,1
    8000038c:	00e0971b          	slliw	a4,ra,0xe
    80000390:	00000013          	nop
    80000394:	00070313          	mv	t1,a4
    80000398:	00120213          	addi	tp,tp,1 # 1 <_start-0x7fffffff>
    8000039c:	00200293          	li	t0,2
    800003a0:	fe5214e3          	bne	tp,t0,80000388 <test_19+0x8>
    800003a4:	000043b7          	lui	t2,0x4
    800003a8:	0c731a63          	bne	t1,t2,8000047c <fail>

00000000800003ac <test_20>:
    800003ac:	01400193          	li	gp,20
    800003b0:	00000213          	li	tp,0
    800003b4:	00100093          	li	ra,1
    800003b8:	01f0971b          	slliw	a4,ra,0x1f
    800003bc:	00000013          	nop
    800003c0:	00000013          	nop
    800003c4:	00070313          	mv	t1,a4
    800003c8:	00120213          	addi	tp,tp,1 # 1 <_start-0x7fffffff>
    800003cc:	00200293          	li	t0,2
    800003d0:	fe5212e3          	bne	tp,t0,800003b4 <test_20+0x8>
    800003d4:	800003b7          	lui	t2,0x80000
    800003d8:	0a731263          	bne	t1,t2,8000047c <fail>

00000000800003dc <test_21>:
    800003dc:	01500193          	li	gp,21
    800003e0:	00000213          	li	tp,0
    800003e4:	00100093          	li	ra,1
    800003e8:	0070971b          	slliw	a4,ra,0x7
    800003ec:	00120213          	addi	tp,tp,1 # 1 <_start-0x7fffffff>
    800003f0:	00200293          	li	t0,2
    800003f4:	fe5218e3          	bne	tp,t0,800003e4 <test_21+0x8>
    800003f8:	08000393          	li	t2,128
    800003fc:	08771063          	bne	a4,t2,8000047c <fail>

0000000080000400 <test_22>:
    80000400:	01600193          	li	gp,22
    80000404:	00000213          	li	tp,0
    80000408:	00100093          	li	ra,1
    8000040c:	00000013          	nop
    80000410:	00e0971b          	slliw	a4,ra,0xe
    80000414:	00120213          	addi	tp,tp,1 # 1 <_start-0x7fffffff>
    80000418:	00200293          	li	t0,2
    8000041c:	fe5216e3          	bne	tp,t0,80000408 <test_22+0x8>
    80000420:	000043b7          	lui	t2,0x4
    80000424:	04771c63          	bne	a4,t2,8000047c <fail>

0000000080000428 <test_23>:
    80000428:	01700193          	li	gp,23
    8000042c:	00000213          	li	tp,0
    80000430:	00100093          	li	ra,1
    80000434:	00000013          	nop
    80000438:	00000013          	nop
    8000043c:	01f0971b          	slliw	a4,ra,0x1f
    80000440:	00120213          	addi	tp,tp,1 # 1 <_start-0x7fffffff>
    80000444:	00200293          	li	t0,2
    80000448:	fe5214e3          	bne	tp,t0,80000430 <test_23+0x8>
    8000044c:	800003b7          	lui	t2,0x80000
    80000450:	02771663          	bne	a4,t2,8000047c <fail>

0000000080000454 <test_24>:
    80000454:	01800193          	li	gp,24
    80000458:	01f0109b          	slliw	ra,zero,0x1f
    8000045c:	00000393          	li	t2,0
    80000460:	00709e63          	bne	ra,t2,8000047c <fail>

0000000080000464 <test_25>:
    80000464:	01900193          	li	gp,25
    80000468:	01f00093          	li	ra,31
    8000046c:	01c0901b          	slliw	zero,ra,0x1c
    80000470:	00000393          	li	t2,0
    80000474:	00701463          	bne	zero,t2,8000047c <fail>
    80000478:	02301063          	bne	zero,gp,80000498 <pass>

000000008000047c <fail>:
    8000047c:	0ff0000f          	fence
    80000480:	00018063          	beqz	gp,80000480 <fail+0x4>
    80000484:	00119193          	slli	gp,gp,0x1
    80000488:	0011e193          	ori	gp,gp,1
    8000048c:	05d00893          	li	a7,93
    80000490:	00018513          	mv	a0,gp
    80000494:	00000073          	ecall

0000000080000498 <pass>:
    80000498:	0ff0000f          	fence
    8000049c:	00100193          	li	gp,1
    800004a0:	05d00893          	li	a7,93
    800004a4:	00000513          	li	a0,0
    800004a8:	00000073          	ecall
    800004ac:	c0001073          	unimp
    800004b0:	0000                	unimp
    800004b2:	0000                	unimp
    800004b4:	0000                	unimp
    800004b6:	0000                	unimp
    800004b8:	0000                	unimp
    800004ba:	0000                	unimp
